target datalayout = "e-m:e-p270:32:32-p271:32:32-p272:64:64-i64:64-i128:128-f80:128-n8:16:32:64-S128"
target triple = "x86_64-pc-linux-gnu"

%struct.UriParserStateStructA = type { ptr, i32, ptr, ptr }
%struct.UriUriStructA = type { %struct.UriTextRangeStructA, %struct.UriTextRangeStructA, %struct.UriTextRangeStructA, %struct.UriHostDataStructA, %struct.UriTextRangeStructA, ptr, ptr, %struct.UriTextRangeStructA, %struct.UriTextRangeStructA, i32, i32, ptr }
%struct.UriHostDataStructA = type { ptr, ptr, %struct.UriTextRangeStructA }
%struct.UriTextRangeStructA = type { ptr, ptr }

; Function Attrs: inlinehint nounwind uwtable
define internal void @uriStopMallocA(ptr noundef %0, ptr noundef %1) #4 {
  %3 = alloca ptr, align 8
  %4 = alloca ptr, align 8
  store ptr %0, ptr %3, align 8, !tbaa !3
  store ptr %1, ptr %4, align 8, !tbaa !10
  %5 = load ptr, ptr %3, align 8, !tbaa !3
  %6 = getelementptr inbounds nuw %struct.UriParserStateStructA, ptr %5, i32 0, i32 0
  %7 = load ptr, ptr %6, align 8, !tbaa !12
  %8 = load ptr, ptr %4, align 8, !tbaa !10
  %9 = call i32 @uriFreeUriMembersMmA(ptr noundef %7, ptr noundef %8)
  %10 = load ptr, ptr %3, align 8, !tbaa !3
  %11 = getelementptr inbounds nuw %struct.UriParserStateStructA, ptr %10, i32 0, i32 2
  store ptr null, ptr %11, align 8, !tbaa !17
  %12 = load ptr, ptr %3, align 8, !tbaa !3
  %13 = getelementptr inbounds nuw %struct.UriParserStateStructA, ptr %12, i32 0, i32 1
  store i32 3, ptr %13, align 8, !tbaa !18
  ret void
}

; Function Attrs: nounwind uwtable
define internal ptr @uriParseOwnPortUserInfoA(ptr noundef %0, ptr noundef %1, ptr noundef %2, ptr noundef %3) #0 {
  %5 = alloca ptr, align 8
  %6 = alloca ptr, align 8
  %7 = alloca ptr, align 8
  %8 = alloca ptr, align 8
  %9 = alloca ptr, align 8
  %10 = alloca ptr, align 8
  %11 = alloca i32, align 4
  store ptr %0, ptr %6, align 8, !tbaa !3
  store ptr %1, ptr %7, align 8, !tbaa !8
  store ptr %2, ptr %8, align 8, !tbaa !8
  store ptr %3, ptr %9, align 8, !tbaa !10
  %12 = load ptr, ptr %7, align 8, !tbaa !8
  %13 = load ptr, ptr %8, align 8, !tbaa !8
  %14 = icmp uge ptr %12, %13
  br i1 %14, label %15, label %26

15:                                               ; preds = %4
  %16 = load ptr, ptr %6, align 8, !tbaa !3
  %17 = load ptr, ptr %7, align 8, !tbaa !8
  %18 = load ptr, ptr %9, align 8, !tbaa !10
  %19 = call i32 @uriOnExitOwnPortUserInfoA(ptr noundef %16, ptr noundef %17, ptr noundef %18)
  %20 = icmp ne i32 %19, 0
  br i1 %20, label %24, label %21

21:                                               ; preds = %15
  %22 = load ptr, ptr %6, align 8, !tbaa !3
  %23 = load ptr, ptr %9, align 8, !tbaa !10
  call void @uriStopMallocA(ptr noundef %22, ptr noundef %23)
  store ptr null, ptr %5, align 8
  br label %116

24:                                               ; preds = %15
  %25 = load ptr, ptr %8, align 8, !tbaa !8
  store ptr %25, ptr %5, align 8
  br label %116

26:                                               ; preds = %4
  %27 = load ptr, ptr %7, align 8, !tbaa !8
  %28 = load i8, ptr %27, align 1, !tbaa !57
  %29 = sext i8 %28 to i32
  switch i32 %29, label %105 [
    i32 33, label %30
    i32 36, label %30
    i32 38, label %30
    i32 39, label %30
    i32 40, label %30
    i32 41, label %30
    i32 42, label %30
    i32 43, label %30
    i32 44, label %30
    i32 59, label %30
    i32 61, label %30
    i32 45, label %30
    i32 46, label %30
    i32 95, label %30
    i32 126, label %30
    i32 58, label %30
    i32 65, label %30
    i32 66, label %30
    i32 67, label %30
    i32 68, label %30
    i32 69, label %30
    i32 70, label %30
    i32 97, label %30
    i32 98, label %30
    i32 99, label %30
    i32 100, label %30
    i32 101, label %30
    i32 102, label %30
    i32 103, label %30
    i32 71, label %30
    i32 104, label %30
    i32 72, label %30
    i32 105, label %30
    i32 73, label %30
    i32 106, label %30
    i32 74, label %30
    i32 107, label %30
    i32 75, label %30
    i32 108, label %30
    i32 76, label %30
    i32 109, label %30
    i32 77, label %30
    i32 110, label %30
    i32 78, label %30
    i32 111, label %30
    i32 79, label %30
    i32 112, label %30
    i32 80, label %30
    i32 113, label %30
    i32 81, label %30
    i32 114, label %30
    i32 82, label %30
    i32 115, label %30
    i32 83, label %30
    i32 116, label %30
    i32 84, label %30
    i32 117, label %30
    i32 85, label %30
    i32 118, label %30
    i32 86, label %30
    i32 119, label %30
    i32 87, label %30
    i32 120, label %30
    i32 88, label %30
    i32 121, label %30
    i32 89, label %30
    i32 122, label %30
    i32 90, label %30
    i32 48, label %47
    i32 49, label %47
    i32 50, label %47
    i32 51, label %47
    i32 52, label %47
    i32 53, label %47
    i32 54, label %47
    i32 55, label %47
    i32 56, label %47
    i32 57, label %47
    i32 37, label %54
    i32 64, label %75
  ]

30:                                               ; preds = %26, %26, %26, %26, %26, %26, %26, %26, %26, %26, %26, %26, %26, %26, %26, %26, %26, %26, %26, %26, %26, %26, %26, %26, %26, %26, %26, %26, %26, %26, %26, %26, %26, %26, %26, %26, %26, %26, %26, %26, %26, %26, %26, %26, %26, %26, %26, %26, %26, %26, %26, %26, %26, %26, %26, %26, %26, %26, %26, %26, %26, %26, %26, %26, %26, %26, %26, %26
  %31 = load ptr, ptr %6, align 8, !tbaa !3
  %32 = getelementptr inbounds nuw %struct.UriParserStateStructA, ptr %31, i32 0, i32 0
  %33 = load ptr, ptr %32, align 8, !tbaa !12
  %34 = getelementptr inbounds nuw %struct.UriUriStructA, ptr %33, i32 0, i32 2
  %35 = getelementptr inbounds nuw %struct.UriTextRangeStructA, ptr %34, i32 0, i32 1
  store ptr null, ptr %35, align 8, !tbaa !38
  %36 = load ptr, ptr %6, align 8, !tbaa !3
  %37 = getelementptr inbounds nuw %struct.UriParserStateStructA, ptr %36, i32 0, i32 0
  %38 = load ptr, ptr %37, align 8, !tbaa !12
  %39 = getelementptr inbounds nuw %struct.UriUriStructA, ptr %38, i32 0, i32 4
  %40 = getelementptr inbounds nuw %struct.UriTextRangeStructA, ptr %39, i32 0, i32 0
  store ptr null, ptr %40, align 8, !tbaa !41
  %41 = load ptr, ptr %6, align 8, !tbaa !3
  %42 = load ptr, ptr %7, align 8, !tbaa !8
  %43 = getelementptr inbounds i8, ptr %42, i64 1
  %44 = load ptr, ptr %8, align 8, !tbaa !8
  %45 = load ptr, ptr %9, align 8, !tbaa !10
  %46 = call ptr @uriParseOwnUserInfoA(ptr noundef %41, ptr noundef %43, ptr noundef %44, ptr noundef %45)
  store ptr %46, ptr %5, align 8
  br label %116

47:                                               ; preds = %26, %26, %26, %26, %26, %26, %26, %26, %26, %26
  %48 = load ptr, ptr %6, align 8, !tbaa !3
  %49 = load ptr, ptr %7, align 8, !tbaa !8
  %50 = getelementptr inbounds i8, ptr %49, i64 1
  %51 = load ptr, ptr %8, align 8, !tbaa !8
  %52 = load ptr, ptr %9, align 8, !tbaa !10
  %53 = call ptr @uriParseOwnPortUserInfoA(ptr noundef %48, ptr noundef %50, ptr noundef %51, ptr noundef %52)
  store ptr %53, ptr %5, align 8
  br label %116

54:                                               ; preds = %26
  %55 = load ptr, ptr %6, align 8, !tbaa !3
  %56 = getelementptr inbounds nuw %struct.UriParserStateStructA, ptr %55, i32 0, i32 0
  %57 = load ptr, ptr %56, align 8, !tbaa !12
  %58 = getelementptr inbounds nuw %struct.UriUriStructA, ptr %57, i32 0, i32 4
  %59 = getelementptr inbounds nuw %struct.UriTextRangeStructA, ptr %58, i32 0, i32 0
  store ptr null, ptr %59, align 8, !tbaa !41
  call void @llvm.lifetime.start.p0(i64 8, ptr %10) #7
  %60 = load ptr, ptr %6, align 8, !tbaa !3
  %61 = load ptr, ptr %7, align 8, !tbaa !8
  %62 = load ptr, ptr %8, align 8, !tbaa !8
  %63 = load ptr, ptr %9, align 8, !tbaa !10
  %64 = call ptr @uriParsePctEncodedA(ptr noundef %60, ptr noundef %61, ptr noundef %62, ptr noundef %63)
  store ptr %64, ptr %10, align 8, !tbaa !8
  %65 = load ptr, ptr %10, align 8, !tbaa !8
  %66 = icmp eq ptr %65, null
  br i1 %66, label %67, label %68

67:                                               ; preds = %54
  store ptr null, ptr %5, align 8
  store i32 1, ptr %11, align 4
  br label %74

68:                                               ; preds = %54
  %69 = load ptr, ptr %6, align 8, !tbaa !3
  %70 = load ptr, ptr %10, align 8, !tbaa !8
  %71 = load ptr, ptr %8, align 8, !tbaa !8
  %72 = load ptr, ptr %9, align 8, !tbaa !10
  %73 = call ptr @uriParseOwnUserInfoA(ptr noundef %69, ptr noundef %70, ptr noundef %71, ptr noundef %72)
  store ptr %73, ptr %5, align 8
  store i32 1, ptr %11, align 4
  br label %74

74:                                               ; preds = %68, %67
  call void @llvm.lifetime.end.p0(i64 8, ptr %10) #7
  br label %116

75:                                               ; preds = %26
  %76 = load ptr, ptr %6, align 8, !tbaa !3
  %77 = getelementptr inbounds nuw %struct.UriParserStateStructA, ptr %76, i32 0, i32 0
  %78 = load ptr, ptr %77, align 8, !tbaa !12
  %79 = getelementptr inbounds nuw %struct.UriUriStructA, ptr %78, i32 0, i32 2
  %80 = getelementptr inbounds nuw %struct.UriTextRangeStructA, ptr %79, i32 0, i32 1
  store ptr null, ptr %80, align 8, !tbaa !38
  %81 = load ptr, ptr %6, align 8, !tbaa !3
  %82 = getelementptr inbounds nuw %struct.UriParserStateStructA, ptr %81, i32 0, i32 0
  %83 = load ptr, ptr %82, align 8, !tbaa !12
  %84 = getelementptr inbounds nuw %struct.UriUriStructA, ptr %83, i32 0, i32 4
  %85 = getelementptr inbounds nuw %struct.UriTextRangeStructA, ptr %84, i32 0, i32 0
  store ptr null, ptr %85, align 8, !tbaa !41
  %86 = load ptr, ptr %7, align 8, !tbaa !8
  %87 = load ptr, ptr %6, align 8, !tbaa !3
  %88 = getelementptr inbounds nuw %struct.UriParserStateStructA, ptr %87, i32 0, i32 0
  %89 = load ptr, ptr %88, align 8, !tbaa !12
  %90 = getelementptr inbounds nuw %struct.UriUriStructA, ptr %89, i32 0, i32 1
  %91 = getelementptr inbounds nuw %struct.UriTextRangeStructA, ptr %90, i32 0, i32 1
  store ptr %86, ptr %91, align 8, !tbaa !34
  %92 = load ptr, ptr %7, align 8, !tbaa !8
  %93 = getelementptr inbounds i8, ptr %92, i64 1
  %94 = load ptr, ptr %6, align 8, !tbaa !3
  %95 = getelementptr inbounds nuw %struct.UriParserStateStructA, ptr %94, i32 0, i32 0
  %96 = load ptr, ptr %95, align 8, !tbaa !12
  %97 = getelementptr inbounds nuw %struct.UriUriStructA, ptr %96, i32 0, i32 2
  %98 = getelementptr inbounds nuw %struct.UriTextRangeStructA, ptr %97, i32 0, i32 0
  store ptr %93, ptr %98, align 8, !tbaa !37
  %99 = load ptr, ptr %6, align 8, !tbaa !3
  %100 = load ptr, ptr %7, align 8, !tbaa !8
  %101 = getelementptr inbounds i8, ptr %100, i64 1
  %102 = load ptr, ptr %8, align 8, !tbaa !8
  %103 = load ptr, ptr %9, align 8, !tbaa !10
  %104 = call ptr @uriParseOwnHostA(ptr noundef %99, ptr noundef %101, ptr noundef %102, ptr noundef %103)
  store ptr %104, ptr %5, align 8
  br label %116

105:                                              ; preds = %26
  %106 = load ptr, ptr %6, align 8, !tbaa !3
  %107 = load ptr, ptr %7, align 8, !tbaa !8
  %108 = load ptr, ptr %9, align 8, !tbaa !10
  %109 = call i32 @uriOnExitOwnPortUserInfoA(ptr noundef %106, ptr noundef %107, ptr noundef %108)
  %110 = icmp ne i32 %109, 0
  br i1 %110, label %114, label %111

111:                                              ; preds = %105
  %112 = load ptr, ptr %6, align 8, !tbaa !3
  %113 = load ptr, ptr %9, align 8, !tbaa !10
  call void @uriStopMallocA(ptr noundef %112, ptr noundef %113)
  store ptr null, ptr %5, align 8
  br label %116

114:                                              ; preds = %105
  %115 = load ptr, ptr %7, align 8, !tbaa !8
  store ptr %115, ptr %5, align 8
  br label %116

116:                                              ; preds = %114, %111, %75, %74, %47, %30, %24, %21
  %117 = load ptr, ptr %5, align 8
  ret ptr %117
}