; Function Attrs: nounwind uwtable
define internal fastcc ptr @uriParseOwnPortUserInfoA(ptr noundef nonnull %0, ptr noundef nonnull %1, ptr noundef nonnull %2, ptr noundef %3) unnamed_addr #0 {
  %.not62 = icmp ult ptr %1, %2
  br i1 %.not62, label %.lr.ph.preheader, label %tailrecurse._crit_edge

.lr.ph.preheader:                                 ; preds = %4
  %5 = ptrtoint ptr %2 to i64
  %6 = ptrtoint ptr %1 to i64
  %7 = sub i64 %5, %6
  %scevgep = getelementptr i8, ptr %1, i64 %7
  br label %.lr.ph

tailrecurse._crit_edge:                           ; preds = %tailrecurse, %4
  %.tr55.lcssa = phi ptr [ %1, %4 ], [ %scevgep, %tailrecurse ]
  %8 = load ptr, ptr %0, align 8, !tbaa !3
  %9 = getelementptr inbounds nuw i8, ptr %8, i64 16
  %10 = load ptr, ptr %9, align 8, !tbaa !33
  %11 = getelementptr inbounds nuw i8, ptr %8, i64 32
  store ptr %10, ptr %11, align 8, !tbaa !37
  store ptr null, ptr %9, align 8, !tbaa !33
  %12 = getelementptr inbounds nuw i8, ptr %8, i64 88
  store ptr %.tr55.lcssa, ptr %12, align 8, !tbaa !42
  %13 = load ptr, ptr %3, align 8, !tbaa !49
  %14 = tail call ptr %13(ptr noundef nonnull %3, i64 noundef 4) #7
  %15 = load ptr, ptr %0, align 8, !tbaa !3
  %16 = getelementptr inbounds nuw i8, ptr %15, i64 48
  store ptr %14, ptr %16, align 8, !tbaa !38
  %17 = icmp eq ptr %14, null
  br i1 %17, label %uriOnExitOwnPortUserInfoA.exit, label %18

18:                                               ; preds = %tailrecurse._crit_edge
  %19 = getelementptr inbounds nuw i8, ptr %15, i64 32
  %20 = load ptr, ptr %19, align 8, !tbaa !37
  %21 = getelementptr inbounds nuw i8, ptr %15, i64 40
  %22 = load ptr, ptr %21, align 8, !tbaa !40
  %23 = tail call i32 @uriParseIpFourAddressA(ptr noundef nonnull %14, ptr noundef %20, ptr noundef %22) #7
  %.not.i = icmp eq i32 %23, 0
  br i1 %.not.i, label %uriOnExitOwnPortUserInfoA.exit.thread, label %24

24:                                               ; preds = %18
  %25 = getelementptr inbounds nuw i8, ptr %3, i64 32
  %26 = load ptr, ptr %25, align 8, !tbaa !32
  %27 = load ptr, ptr %0, align 8, !tbaa !3
  %28 = getelementptr inbounds nuw i8, ptr %27, i64 48
  %29 = load ptr, ptr %28, align 8, !tbaa !38
  tail call void %26(ptr noundef nonnull %3, ptr noundef %29) #7
  %30 = load ptr, ptr %0, align 8, !tbaa !3
  %31 = getelementptr inbounds nuw i8, ptr %30, i64 48
  store ptr null, ptr %31, align 8, !tbaa !38
  br label %uriOnExitOwnPortUserInfoA.exit.thread

uriOnExitOwnPortUserInfoA.exit:                   ; preds = %tailrecurse._crit_edge
  %32 = tail call i32 @uriFreeUriMembersMmA(ptr noundef nonnull %15, ptr noundef nonnull %3)
  %33 = getelementptr inbounds nuw i8, ptr %0, i64 16
  store ptr null, ptr %33, align 8, !tbaa !28
  %34 = getelementptr inbounds nuw i8, ptr %0, i64 8
  store i32 3, ptr %34, align 8, !tbaa !29
  br label %uriOnExitOwnPortUserInfoA.exit.thread

.lr.ph:                                           ; preds = %.lr.ph.preheader, %tailrecurse
  %.tr5563 = phi ptr [ %42, %tailrecurse ], [ %1, %.lr.ph.preheader ]
  %35 = load i8, ptr %.tr5563, align 1, !tbaa !11
  switch i8 %35, label %58 [
    i8 33, label %36
    i8 36, label %36
    i8 38, label %36
    i8 39, label %36
    i8 40, label %36
    i8 41, label %36
    i8 42, label %36
    i8 43, label %36
    i8 44, label %36
    i8 59, label %36
    i8 61, label %36
    i8 45, label %36
    i8 46, label %36
    i8 95, label %36
    i8 126, label %36
    i8 58, label %36
    i8 65, label %36
    i8 66, label %36
    i8 67, label %36
    i8 68, label %36
    i8 69, label %36
    i8 70, label %36
    i8 97, label %36
    i8 98, label %36
    i8 99, label %36
    i8 100, label %36
    i8 101, label %36
    i8 102, label %36
    i8 103, label %36
    i8 71, label %36
    i8 104, label %36
    i8 72, label %36
    i8 105, label %36
    i8 73, label %36
    i8 106, label %36
    i8 74, label %36
    i8 107, label %36
    i8 75, label %36
    i8 108, label %36
    i8 76, label %36
    i8 109, label %36
    i8 77, label %36
    i8 110, label %36
    i8 78, label %36
    i8 111, label %36
    i8 79, label %36
    i8 112, label %36
    i8 80, label %36
    i8 113, label %36
    i8 81, label %36
    i8 114, label %36
    i8 82, label %36
    i8 115, label %36
    i8 83, label %36
    i8 116, label %36
    i8 84, label %36
    i8 117, label %36
    i8 85, label %36
    i8 118, label %36
    i8 86, label %36
    i8 119, label %36
    i8 87, label %36
    i8 120, label %36
    i8 88, label %36
    i8 121, label %36
    i8 89, label %36
    i8 122, label %36
    i8 90, label %36
    i8 48, label %tailrecurse
    i8 49, label %tailrecurse
    i8 50, label %tailrecurse
    i8 51, label %tailrecurse
    i8 52, label %tailrecurse
    i8 53, label %tailrecurse
    i8 54, label %tailrecurse
    i8 55, label %tailrecurse
    i8 56, label %tailrecurse
    i8 57, label %tailrecurse
    i8 37, label %43
    i8 64, label %50
  ]

36:                                               ; preds = %.lr.ph, %.lr.ph, %.lr.ph, %.lr.ph, %.lr.ph, %.lr.ph, %.lr.ph, %.lr.ph, %.lr.ph, %.lr.ph, %.lr.ph, %.lr.ph, %.lr.ph, %.lr.ph, %.lr.ph, %.lr.ph, %.lr.ph, %.lr.ph, %.lr.ph, %.lr.ph, %.lr.ph, %.lr.ph, %.lr.ph, %.lr.ph, %.lr.ph, %.lr.ph, %.lr.ph, %.lr.ph, %.lr.ph, %.lr.ph, %.lr.ph, %.lr.ph, %.lr.ph, %.lr.ph, %.lr.ph, %.lr.ph, %.lr.ph, %.lr.ph, %.lr.ph, %.lr.ph, %.lr.ph, %.lr.ph, %.lr.ph, %.lr.ph, %.lr.ph, %.lr.ph, %.lr.ph, %.lr.ph, %.lr.ph, %.lr.ph, %.lr.ph, %.lr.ph, %.lr.ph, %.lr.ph, %.lr.ph, %.lr.ph, %.lr.ph, %.lr.ph, %.lr.ph, %.lr.ph, %.lr.ph, %.lr.ph, %.lr.ph, %.lr.ph, %.lr.ph, %.lr.ph, %.lr.ph, %.lr.ph
  %37 = load ptr, ptr %0, align 8, !tbaa !3
  %38 = getelementptr inbounds nuw i8, ptr %37, i64 40
  store ptr null, ptr %38, align 8, !tbaa !40
  %39 = getelementptr inbounds nuw i8, ptr %37, i64 80
  store ptr null, ptr %39, align 8, !tbaa !41
  %40 = getelementptr inbounds nuw i8, ptr %.tr5563, i64 1
  %41 = tail call fastcc ptr @uriParseOwnUserInfoA(ptr noundef %0, ptr noundef %40, ptr noundef %2, ptr noundef %3)
  br label %uriOnExitOwnPortUserInfoA.exit.thread

tailrecurse:                                      ; preds = %.lr.ph, %.lr.ph, %.lr.ph, %.lr.ph, %.lr.ph, %.lr.ph, %.lr.ph, %.lr.ph, %.lr.ph, %.lr.ph
  %42 = getelementptr inbounds nuw i8, ptr %.tr5563, i64 1
  %exitcond.not = icmp eq ptr %42, %2
  br i1 %exitcond.not, label %tailrecurse._crit_edge, label %.lr.ph

43:                                               ; preds = %.lr.ph
  %44 = load ptr, ptr %0, align 8, !tbaa !3
  %45 = getelementptr inbounds nuw i8, ptr %44, i64 80
  store ptr null, ptr %45, align 8, !tbaa !41
  %46 = tail call fastcc ptr @uriParsePctEncodedA(ptr noundef %0, ptr noundef %.tr5563, ptr noundef %2, ptr noundef %3)
  %47 = icmp eq ptr %46, null
  br i1 %47, label %uriOnExitOwnPortUserInfoA.exit.thread, label %48

48:                                               ; preds = %43
  %49 = tail call fastcc ptr @uriParseOwnUserInfoA(ptr noundef %0, ptr noundef %46, ptr noundef %2, ptr noundef %3)
  br label %uriOnExitOwnPortUserInfoA.exit.thread

50:                                               ; preds = %.lr.ph
  %51 = load ptr, ptr %0, align 8, !tbaa !3
  %52 = getelementptr inbounds nuw i8, ptr %51, i64 40
  store ptr null, ptr %52, align 8, !tbaa !40
  %53 = getelementptr inbounds nuw i8, ptr %51, i64 80
  store ptr null, ptr %53, align 8, !tbaa !41
  %54 = getelementptr inbounds nuw i8, ptr %51, i64 24
  store ptr %.tr5563, ptr %54, align 8, !tbaa !34
  %55 = getelementptr inbounds nuw i8, ptr %.tr5563, i64 1
  %56 = getelementptr inbounds nuw i8, ptr %51, i64 32
  store ptr %55, ptr %56, align 8, !tbaa !37
  %57 = tail call fastcc ptr @uriParseOwnHostA(ptr noundef %0, ptr noundef %55, ptr noundef %2, ptr noundef %3)
  br label %uriOnExitOwnPortUserInfoA.exit.thread

58:                                               ; preds = %.lr.ph
  %59 = tail call fastcc i32 @uriOnExitOwnPortUserInfoA(ptr noundef %0, ptr noundef %.tr5563, ptr noundef %3)
  %.not51 = icmp eq i32 %59, 0
  br i1 %.not51, label %60, label %uriOnExitOwnPortUserInfoA.exit.thread

60:                                               ; preds = %58
  %61 = load ptr, ptr %0, align 8, !tbaa !3
  %62 = tail call i32 @uriFreeUriMembersMmA(ptr noundef %61, ptr noundef %3)
  %63 = getelementptr inbounds nuw i8, ptr %0, i64 16
  store ptr null, ptr %63, align 8, !tbaa !28
  %64 = getelementptr inbounds nuw i8, ptr %0, i64 8
  store i32 3, ptr %64, align 8, !tbaa !29
  br label %uriOnExitOwnPortUserInfoA.exit.thread

uriOnExitOwnPortUserInfoA.exit.thread:            ; preds = %18, %24, %58, %48, %43, %60, %50, %36, %uriOnExitOwnPortUserInfoA.exit
  %.0 = phi ptr [ null, %uriOnExitOwnPortUserInfoA.exit ], [ null, %60 ], [ %57, %50 ], [ %41, %36 ], [ %49, %48 ], [ null, %43 ], [ %.tr5563, %58 ], [ %2, %24 ], [ %2, %18 ]
  ret ptr %.0
}